; Function Attrs: nounwind uwtable
define dso_local ptr @archive_entry_symlink_utf8(ptr noundef %0) local_unnamed_addr #0 {
  %2 = alloca ptr, align 8
  call void @llvm.lifetime.start.p0(i64 8, ptr nonnull %2) #21
  %3 = getelementptr inbounds nuw i8, ptr %0, i64 192
  %4 = load i32, ptr %3, align 8, !tbaa !31
  %5 = and i32 %4, 2
  %6 = icmp eq i32 %5, 0
  br i1 %6, label %19, label %7

7:                                                ; preds = %1
  %8 = load ptr, ptr %0, align 8, !tbaa !25
  %9 = getelementptr inbounds nuw i8, ptr %0, i64 424
  %10 = call i32 @archive_mstring_get_utf8(ptr noundef %8, ptr noundef nonnull %9, ptr noundef nonnull %2) #21
  %11 = icmp eq i32 %10, 0
  br i1 %11, label %12, label %14

12:                                               ; preds = %7
  %13 = load ptr, ptr %2, align 8, !tbaa !57
  br label %19

14:                                               ; preds = %7
  %15 = tail call ptr @__errno_location() #25
  %16 = load i32, ptr %15, align 4, !tbaa !28
  %17 = icmp eq i32 %16, 12
  br i1 %17, label %18, label %19

18:                                               ; preds = %14
  call void @__archive_errx(i32 noundef 1, ptr noundef nonnull @.str) #23
  unreachable

19:                                               ; preds = %14, %1, %12
  %.0 = phi ptr [ %13, %12 ], [ null, %1 ], [ null, %14 ]
  call void @llvm.lifetime.end.p0(i64 8, ptr nonnull %2) #21
  ret ptr %.0
}